target datalayout = "e-m:e-p270:32:32-p271:32:32-p272:64:64-i64:64-i128:128-f80:128-n8:16:32:64-S128"
target triple = "x86_64-pc-linux-gnu"

%"class.cv::detail::tracking::online_boosting::ClassifierThreshold" = type { ptr, ptr, ptr, float, i32 }

; Function Attrs: mustprogress nounwind uwtable
define hidden void @_ZN2cv6detail8tracking15online_boosting19ClassifierThresholdC2EPNS2_26EstimatedGaussDistributionES5_(ptr noundef nonnull align 8 dereferenceable(32) %0, ptr noundef %1, ptr noundef %2) unnamed_addr #5 align 2 {
  %4 = alloca ptr, align 8
  %5 = alloca ptr, align 8
  %6 = alloca ptr, align 8
  store ptr %0, ptr %4, align 8, !tbaa !168
  store ptr %1, ptr %5, align 8, !tbaa !157
  store ptr %2, ptr %6, align 8, !tbaa !157
  %7 = load ptr, ptr %4, align 8
  store ptr getelementptr inbounds inrange(-16, 16) ({ [4 x ptr] }, ptr @_ZTVN2cv6detail8tracking15online_boosting19ClassifierThresholdE, i32 0, i32 0, i32 2), ptr %7, align 8, !tbaa !14
  %8 = load ptr, ptr %5, align 8, !tbaa !157
  %9 = getelementptr inbounds nuw %"class.cv::detail::tracking::online_boosting::ClassifierThreshold", ptr %7, i32 0, i32 1
  store ptr %8, ptr %9, align 8, !tbaa !169
  %10 = load ptr, ptr %6, align 8, !tbaa !157
  %11 = getelementptr inbounds nuw %"class.cv::detail::tracking::online_boosting::ClassifierThreshold", ptr %7, i32 0, i32 2
  store ptr %10, ptr %11, align 8, !tbaa !171
  %12 = getelementptr inbounds nuw %"class.cv::detail::tracking::online_boosting::ClassifierThreshold", ptr %7, i32 0, i32 3
  store float 0.000000e+00, ptr %12, align 8, !tbaa !172
  %13 = getelementptr inbounds nuw %"class.cv::detail::tracking::online_boosting::ClassifierThreshold", ptr %7, i32 0, i32 4
  store i32 0, ptr %13, align 4, !tbaa !173
  ret void
}